target datalayout = "e-m:e-p270:32:32-p271:32:32-p272:64:64-i64:64-i128:128-f80:128-n8:16:32:64-S128"
target triple = "x86_64-pc-linux-gnu"

%struct.pmix_object_t = type { %union.pthread_mutex_t, ptr, i32, %struct.pmix_tma }
%union.pthread_mutex_t = type { %struct.__pthread_mutex_s }
%struct.__pthread_mutex_s = type { i32, i32, i32, i32, i32, i16, i16, %struct.__pthread_internal_list }
%struct.__pthread_internal_list = type { ptr, ptr }
%struct.pmix_tma = type { ptr, ptr, ptr, ptr, ptr, ptr, ptr, ptr }
%struct.pmix_mca_base_framework_t = type { ptr, ptr, ptr, ptr, ptr, ptr, i32, i32, ptr, ptr, i32, i32, %struct.pmix_list_t, %struct.pmix_list_t }
%struct.pmix_list_t = type { %struct.pmix_object_t, %struct.pmix_list_item_t, i64 }
%struct.pmix_list_item_t = type { %struct.pmix_object_t, ptr, ptr, i32 }
%struct.pmix_output_desc_t = type { i8, i8, i32, i8, i32, ptr, ptr, i32, ptr, i32, i8, i8, i8, i8, ptr, i32, i32 }
%struct.pmix_buffer_t = type { %struct.pmix_object_t, i8, ptr, ptr, ptr, i64, i64 }

@pmix_bfrops_base_framework = external global %struct.pmix_mca_base_framework_t, align 8
@pmix_output_info = external global [0 x %struct.pmix_output_desc_t], align 8
@.str.2 = private unnamed_addr constant [29 x i8] c"pmix20_bfrop_pack_byte * %d\0A\00", align 1

; Function Attrs: nounwind uwtable
define i32 @pmix20_bfrop_pack_byte(ptr noundef %0, ptr noundef %1, ptr noundef %2, i32 noundef %3, i16 noundef zeroext %4) #0 {
  %6 = alloca i32, align 4
  %7 = alloca ptr, align 8
  %8 = alloca ptr, align 8
  %9 = alloca ptr, align 8
  %10 = alloca i32, align 4
  %11 = alloca i16, align 2
  %12 = alloca ptr, align 8
  %13 = alloca i32, align 4
  store ptr %0, ptr %7, align 8, !tbaa !11
  store ptr %1, ptr %8, align 8, !tbaa !3
  store ptr %2, ptr %9, align 8, !tbaa !3
  store i32 %3, ptr %10, align 4, !tbaa !7
  store i16 %4, ptr %11, align 2, !tbaa !9
  call void @llvm.lifetime.start.p0(i64 8, ptr %12) #9
  %14 = load i32, ptr getelementptr inbounds nuw (%struct.pmix_mca_base_framework_t, ptr @pmix_bfrops_base_framework, i32 0, i32 11), align 4, !tbaa !22
  %15 = icmp sge i32 %14, 0
  br i1 %15, label %16, label %29

16:                                               ; preds = %5
  %17 = load i32, ptr getelementptr inbounds nuw (%struct.pmix_mca_base_framework_t, ptr @pmix_bfrops_base_framework, i32 0, i32 11), align 4, !tbaa !22
  %18 = icmp slt i32 %17, 64
  br i1 %18, label %19, label %29

19:                                               ; preds = %16
  %20 = load i32, ptr getelementptr inbounds nuw (%struct.pmix_mca_base_framework_t, ptr @pmix_bfrops_base_framework, i32 0, i32 11), align 4, !tbaa !22
  %21 = sext i32 %20 to i64
  %22 = getelementptr inbounds [0 x %struct.pmix_output_desc_t], ptr @pmix_output_info, i64 0, i64 %21
  %23 = getelementptr inbounds nuw %struct.pmix_output_desc_t, ptr %22, i32 0, i32 2
  %24 = load i32, ptr %23, align 4, !tbaa !28
  %25 = icmp sge i32 %24, 20
  br i1 %25, label %26, label %29

26:                                               ; preds = %19
  %27 = load i32, ptr getelementptr inbounds nuw (%struct.pmix_mca_base_framework_t, ptr @pmix_bfrops_base_framework, i32 0, i32 11), align 4, !tbaa !22
  %28 = load i32, ptr %10, align 4, !tbaa !7
  call void (i32, ptr, ...) @pmix_output(i32 noundef %27, ptr noundef @.str.2, i32 noundef %28)
  br label %29

29:                                               ; preds = %26, %19, %16, %5
  %30 = load ptr, ptr %8, align 8, !tbaa !3
  %31 = load i32, ptr %10, align 4, !tbaa !7
  %32 = sext i32 %31 to i64
  %33 = call ptr @pmix_bfrop_buffer_extend(ptr noundef %30, i64 noundef %32)
  store ptr %33, ptr %12, align 8, !tbaa !31
  %34 = icmp eq ptr null, %33
  br i1 %34, label %35, label %36

35:                                               ; preds = %29
  store i32 -29, ptr %6, align 4
  store i32 1, ptr %13, align 4
  br label %53

36:                                               ; preds = %29
  %37 = load ptr, ptr %12, align 8, !tbaa !31
  %38 = load ptr, ptr %9, align 8, !tbaa !3
  %39 = load i32, ptr %10, align 4, !tbaa !7
  %40 = sext i32 %39 to i64
  call void @llvm.memcpy.p0.p0.i64(ptr align 1 %37, ptr align 1 %38, i64 %40, i1 false)
  %41 = load i32, ptr %10, align 4, !tbaa !7
  %42 = load ptr, ptr %8, align 8, !tbaa !3
  %43 = getelementptr inbounds nuw %struct.pmix_buffer_t, ptr %42, i32 0, i32 3
  %44 = load ptr, ptr %43, align 8, !tbaa !34
  %45 = sext i32 %41 to i64
  %46 = getelementptr inbounds i8, ptr %44, i64 %45
  store ptr %46, ptr %43, align 8, !tbaa !34
  %47 = load i32, ptr %10, align 4, !tbaa !7
  %48 = sext i32 %47 to i64
  %49 = load ptr, ptr %8, align 8, !tbaa !3
  %50 = getelementptr inbounds nuw %struct.pmix_buffer_t, ptr %49, i32 0, i32 6
  %51 = load i64, ptr %50, align 8, !tbaa !35
  %52 = add i64 %51, %48
  store i64 %52, ptr %50, align 8, !tbaa !35
  store i32 0, ptr %6, align 4
  store i32 1, ptr %13, align 4
  br label %53

53:                                               ; preds = %36, %35
  call void @llvm.lifetime.end.p0(i64 8, ptr %12) #9
  %54 = load i32, ptr %6, align 4
  ret i32 %54
}

; Function Attrs: nounwind uwtable
define i32 @pmix20_bfrop_pack_pstate(ptr noundef %0, ptr noundef %1, ptr noundef %2, i32 noundef %3, i16 noundef zeroext %4) #0 {
  %6 = alloca ptr, align 8
  %7 = alloca ptr, align 8
  %8 = alloca ptr, align 8
  %9 = alloca i32, align 4
  %10 = alloca i16, align 2
  store ptr %0, ptr %6, align 8, !tbaa !11
  store ptr %1, ptr %7, align 8, !tbaa !3
  store ptr %2, ptr %8, align 8, !tbaa !3
  store i32 %3, ptr %9, align 4, !tbaa !7
  store i16 %4, ptr %10, align 2, !tbaa !9
  %11 = load ptr, ptr %6, align 8, !tbaa !11
  %12 = load ptr, ptr %7, align 8, !tbaa !3
  %13 = load ptr, ptr %8, align 8, !tbaa !3
  %14 = load i32, ptr %9, align 4, !tbaa !7
  %15 = call i32 @pmix20_bfrop_pack_byte(ptr noundef %11, ptr noundef %12, ptr noundef %13, i32 noundef %14, i16 noundef zeroext 12)
  ret i32 %15
}